target datalayout = "e-m:e-p270:32:32-p271:32:32-p272:64:64-i64:64-f80:128-n8:16:32:64-S128"
target triple = "x86_64-pc-linux-gnu"

@.str = private unnamed_addr constant [3 x i8] c"%d\00", align 1
@.str.1 = private unnamed_addr constant [4 x i8] c"%d\0A\00", align 1

; Function Attrs: noinline nounwind uwtable
define dso_local void @main() #0 {
  %1 = alloca [101 x [101 x i8]], align 16
  %2 = alloca [101 x [101 x i8]], align 16
  %3 = alloca i8, align 1
  %4 = alloca i32, align 4
  %5 = alloca i32, align 4
  %6 = alloca i32, align 4
  %7 = alloca i32, align 4
  %8 = alloca i32, align 4
  %9 = alloca i32, align 4
  %10 = bitcast [101 x [101 x i8]]* %1 to i8*
  call void @llvm.memset.p0i8.i64(i8* align 16 %10, i8 0, i64 10201, i1 false)
  store i32 0, i32* %5, align 4
  %11 = call i32 (i8*, ...) @__isoc99_scanf(i8* getelementptr inbounds ([3 x i8], [3 x i8]* @.str, i64 0, i64 0), i32* %4)
  store i32 0, i32* %6, align 4
  br label %12

12:                                               ; preds = %36, %0
  %13 = load i32, i32* %6, align 4
  %14 = load i32, i32* %4, align 4
  %15 = icmp slt i32 %13, %14
  br i1 %15, label %16, label %39

16:                                               ; preds = %12
  %17 = call i32 @getchar()
  %18 = trunc i32 %17 to i8
  store i8 %18, i8* %3, align 1
  store i32 0, i32* %7, align 4
  br label %19

19:                                               ; preds = %32, %16
  %20 = load i32, i32* %7, align 4
  %21 = load i32, i32* %4, align 4
  %22 = icmp slt i32 %20, %21
  br i1 %22, label %23, label %35

23:                                               ; preds = %19
  %24 = call i32 @getchar()
  %25 = trunc i32 %24 to i8
  %26 = load i32, i32* %6, align 4
  %27 = sext i32 %26 to i64
  %28 = getelementptr inbounds [101 x [101 x i8]], [101 x [101 x i8]]* %1, i64 0, i64 %27
  %29 = load i32, i32* %7, align 4
  %30 = sext i32 %29 to i64
  %31 = getelementptr inbounds [101 x i8], [101 x i8]* %28, i64 0, i64 %30
  store i8 %25, i8* %31, align 1
  br label %32

32:                                               ; preds = %23
  %33 = load i32, i32* %7, align 4
  %34 = add nsw i32 %33, 1
  store i32 %34, i32* %7, align 4
  br label %19

35:                                               ; preds = %19
  br label %36

36:                                               ; preds = %35
  %37 = load i32, i32* %6, align 4
  %38 = add nsw i32 %37, 1
  store i32 %38, i32* %6, align 4
  br label %12

39:                                               ; preds = %12
  %40 = call i32 (i8*, ...) @__isoc99_scanf(i8* getelementptr inbounds ([3 x i8], [3 x i8]* @.str, i64 0, i64 0), i32* %9)
  store i32 1, i32* %8, align 4
  br label %41

41:                                               ; preds = %178, %39
  %42 = load i32, i32* %8, align 4
  %43 = load i32, i32* %9, align 4
  %44 = icmp slt i32 %42, %43
  br i1 %44, label %45, label %181

45:                                               ; preds = %41
  store i32 0, i32* %6, align 4
  br label %46

46:                                               ; preds = %143, %45
  %47 = load i32, i32* %6, align 4
  %48 = load i32, i32* %4, align 4
  %49 = icmp slt i32 %47, %48
  br i1 %49, label %50, label %146

50:                                               ; preds = %46
  store i32 0, i32* %7, align 4
  br label %51

51:                                               ; preds = %139, %50
  %52 = load i32, i32* %7, align 4
  %53 = load i32, i32* %4, align 4
  %54 = icmp slt i32 %52, %53
  br i1 %54, label %55, label %142

55:                                               ; preds = %51
  %56 = load i32, i32* %6, align 4
  %57 = sext i32 %56 to i64
  %58 = getelementptr inbounds [101 x [101 x i8]], [101 x [101 x i8]]* %1, i64 0, i64 %57
  %59 = load i32, i32* %7, align 4
  %60 = sext i32 %59 to i64
  %61 = getelementptr inbounds [101 x i8], [101 x i8]* %58, i64 0, i64 %60
  %62 = load i8, i8* %61, align 1
  %63 = sext i8 %62 to i32
  %64 = icmp ne i32 %63, 46
  br i1 %64, label %65, label %79

65:                                               ; preds = %55
  %66 = load i32, i32* %6, align 4
  %67 = sext i32 %66 to i64
  %68 = getelementptr inbounds [101 x [101 x i8]], [101 x [101 x i8]]* %1, i64 0, i64 %67
  %69 = load i32, i32* %7, align 4
  %70 = sext i32 %69 to i64
  %71 = getelementptr inbounds [101 x i8], [101 x i8]* %68, i64 0, i64 %70
  %72 = load i8, i8* %71, align 1
  %73 = load i32, i32* %6, align 4
  %74 = sext i32 %73 to i64
  %75 = getelementptr inbounds [101 x [101 x i8]], [101 x [101 x i8]]* %2, i64 0, i64 %74
  %76 = load i32, i32* %7, align 4
  %77 = sext i32 %76 to i64
  %78 = getelementptr inbounds [101 x i8], [101 x i8]* %75, i64 0, i64 %77
  store i8 %72, i8* %78, align 1
  br label %138

79:                                               ; preds = %55
  %80 = load i32, i32* %6, align 4
  %81 = add nsw i32 %80, 1
  %82 = sext i32 %81 to i64
  %83 = getelementptr inbounds [101 x [101 x i8]], [101 x [101 x i8]]* %1, i64 0, i64 %82
  %84 = load i32, i32* %7, align 4
  %85 = sext i32 %84 to i64
  %86 = getelementptr inbounds [101 x i8], [101 x i8]* %83, i64 0, i64 %85
  %87 = load i8, i8* %86, align 1
  %88 = sext i8 %87 to i32
  %89 = icmp eq i32 %88, 64
  br i1 %89, label %123, label %90

90:                                               ; preds = %79
  %91 = load i32, i32* %6, align 4
  %92 = sub nsw i32 %91, 1
  %93 = sext i32 %92 to i64
  %94 = getelementptr inbounds [101 x [101 x i8]], [101 x [101 x i8]]* %1, i64 0, i64 %93
  %95 = load i32, i32* %7, align 4
  %96 = sext i32 %95 to i64
  %97 = getelementptr inbounds [101 x i8], [101 x i8]* %94, i64 0, i64 %96
  %98 = load i8, i8* %97, align 1
  %99 = sext i8 %98 to i32
  %100 = icmp eq i32 %99, 64
  br i1 %100, label %123, label %101

101:                                              ; preds = %90
  %102 = load i32, i32* %6, align 4
  %103 = sext i32 %102 to i64
  %104 = getelementptr inbounds [101 x [101 x i8]], [101 x [101 x i8]]* %1, i64 0, i64 %103
  %105 = load i32, i32* %7, align 4
  %106 = add nsw i32 %105, 1
  %107 = sext i32 %106 to i64
  %108 = getelementptr inbounds [101 x i8], [101 x i8]* %104, i64 0, i64 %107
  %109 = load i8, i8* %108, align 1
  %110 = sext i8 %109 to i32
  %111 = icmp eq i32 %110, 64
  br i1 %111, label %123, label %112

112:                                              ; preds = %101
  %113 = load i32, i32* %6, align 4
  %114 = sext i32 %113 to i64
  %115 = getelementptr inbounds [101 x [101 x i8]], [101 x [101 x i8]]* %1, i64 0, i64 %114
  %116 = load i32, i32* %7, align 4
  %117 = sub nsw i32 %116, 1
  %118 = sext i32 %117 to i64
  %119 = getelementptr inbounds [101 x i8], [101 x i8]* %115, i64 0, i64 %118
  %120 = load i8, i8* %119, align 1
  %121 = sext i8 %120 to i32
  %122 = icmp eq i32 %121, 64
  br i1 %122, label %123, label %130

123:                                              ; preds = %112, %101, %90, %79
  %124 = load i32, i32* %6, align 4
  %125 = sext i32 %124 to i64
  %126 = getelementptr inbounds [101 x [101 x i8]], [101 x [101 x i8]]* %2, i64 0, i64 %125
  %127 = load i32, i32* %7, align 4
  %128 = sext i32 %127 to i64
  %129 = getelementptr inbounds [101 x i8], [101 x i8]* %126, i64 0, i64 %128
  store i8 64, i8* %129, align 1
  br label %137

130:                                              ; preds = %112
  %131 = load i32, i32* %6, align 4
  %132 = sext i32 %131 to i64
  %133 = getelementptr inbounds [101 x [101 x i8]], [101 x [101 x i8]]* %2, i64 0, i64 %132
  %134 = load i32, i32* %7, align 4
  %135 = sext i32 %134 to i64
  %136 = getelementptr inbounds [101 x i8], [101 x i8]* %133, i64 0, i64 %135
  store i8 46, i8* %136, align 1
  br label %137

137:                                              ; preds = %130, %123
  br label %138

138:                                              ; preds = %137, %65
  br label %139

139:                                              ; preds = %138
  %140 = load i32, i32* %7, align 4
  %141 = add nsw i32 %140, 1
  store i32 %141, i32* %7, align 4
  br label %51

142:                                              ; preds = %51
  br label %143

143:                                              ; preds = %142
  %144 = load i32, i32* %6, align 4
  %145 = add nsw i32 %144, 1
  store i32 %145, i32* %6, align 4
  br label %46

146:                                              ; preds = %46
  store i32 0, i32* %6, align 4
  br label %147

147:                                              ; preds = %174, %146
  %148 = load i32, i32* %6, align 4
  %149 = load i32, i32* %4, align 4
  %150 = icmp slt i32 %148, %149
  br i1 %150, label %151, label %177

151:                                              ; preds = %147
  store i32 0, i32* %7, align 4
  br label %152

152:                                              ; preds = %170, %151
  %153 = load i32, i32* %7, align 4
  %154 = load i32, i32* %4, align 4
  %155 = icmp slt i32 %153, %154
  br i1 %155, label %156, label %173

156:                                              ; preds = %152
  %157 = load i32, i32* %6, align 4
  %158 = sext i32 %157 to i64
  %159 = getelementptr inbounds [101 x [101 x i8]], [101 x [101 x i8]]* %2, i64 0, i64 %158
  %160 = load i32, i32* %7, align 4
  %161 = sext i32 %160 to i64
  %162 = getelementptr inbounds [101 x i8], [101 x i8]* %159, i64 0, i64 %161
  %163 = load i8, i8* %162, align 1
  %164 = load i32, i32* %6, align 4
  %165 = sext i32 %164 to i64
  %166 = getelementptr inbounds [101 x [101 x i8]], [101 x [101 x i8]]* %1, i64 0, i64 %165
  %167 = load i32, i32* %7, align 4
  %168 = sext i32 %167 to i64
  %169 = getelementptr inbounds [101 x i8], [101 x i8]* %166, i64 0, i64 %168
  store i8 %163, i8* %169, align 1
  br label %170

170:                                              ; preds = %156
  %171 = load i32, i32* %7, align 4
  %172 = add nsw i32 %171, 1
  store i32 %172, i32* %7, align 4
  br label %152

173:                                              ; preds = %152
  br label %174

174:                                              ; preds = %173
  %175 = load i32, i32* %6, align 4
  %176 = add nsw i32 %175, 1
  store i32 %176, i32* %6, align 4
  br label %147

177:                                              ; preds = %147
  br label %178

178:                                              ; preds = %177
  %179 = load i32, i32* %8, align 4
  %180 = add nsw i32 %179, 1
  store i32 %180, i32* %8, align 4
  br label %41

181:                                              ; preds = %41
  store i32 0, i32* %6, align 4
  br label %182

182:                                              ; preds = %209, %181
  %183 = load i32, i32* %6, align 4
  %184 = load i32, i32* %4, align 4
  %185 = icmp slt i32 %183, %184
  br i1 %185, label %186, label %212

186:                                              ; preds = %182
  store i32 0, i32* %7, align 4
  br label %187

187:                                              ; preds = %205, %186
  %188 = load i32, i32* %7, align 4
  %189 = load i32, i32* %4, align 4
  %190 = icmp slt i32 %188, %189
  br i1 %190, label %191, label %208

191:                                              ; preds = %187
  %192 = load i32, i32* %6, align 4
  %193 = sext i32 %192 to i64
  %194 = getelementptr inbounds [101 x [101 x i8]], [101 x [101 x i8]]* %1, i64 0, i64 %193
  %195 = load i32, i32* %7, align 4
  %196 = sext i32 %195 to i64
  %197 = getelementptr inbounds [101 x i8], [101 x i8]* %194, i64 0, i64 %196
  %198 = load i8, i8* %197, align 1
  %199 = sext i8 %198 to i32
  %200 = icmp eq i32 %199, 64
  br i1 %200, label %201, label %204

201:                                              ; preds = %191
  %202 = load i32, i32* %5, align 4
  %203 = add nsw i32 %202, 1
  store i32 %203, i32* %5, align 4
  br label %204

204:                                              ; preds = %201, %191
  br label %205

205:                                              ; preds = %204
  %206 = load i32, i32* %7, align 4
  %207 = add nsw i32 %206, 1
  store i32 %207, i32* %7, align 4
  br label %187

208:                                              ; preds = %187
  br label %209

209:                                              ; preds = %208
  %210 = load i32, i32* %6, align 4
  %211 = add nsw i32 %210, 1
  store i32 %211, i32* %6, align 4
  br label %182

212:                                              ; preds = %182
  %213 = load i32, i32* %5, align 4
  %214 = call i32 (i8*, ...) @printf(i8* getelementptr inbounds ([4 x i8], [4 x i8]* @.str.1, i64 0, i64 0), i32 %213)
  ret void
}